; Function Attrs: mustprogress uwtable
define void @_ZN5arrow2io11InputStream4PeekEl(ptr noalias sret(%"class.arrow::Result.12") align 8 %agg.result, ptr nocapture nonnull readnone align 8 %this, i64 %0) unnamed_addr #0 align 2 personality ptr @__gxx_personality_v0 {
entry:
  %ref.tmp = alloca %"class.arrow::Status", align 8
  call void @_ZN5arrow6Status8FromArgsIJRA21_KcEEES0_NS_10StatusCodeEDpOT_(ptr nonnull sret(%"class.arrow::Status") align 8 %ref.tmp, i8 noundef signext 10, ptr noundef nonnull align 1 dereferenceable(21) @.str)
  call void @_ZN5arrow6ResultISt17basic_string_viewIcSt11char_traitsIcEEEC2ERKNS_6StatusE(ptr noundef nonnull align 8 dereferenceable(24) %agg.result, ptr noundef nonnull align 8 dereferenceable(8) %ref.tmp) #28
  %1 = load ptr, ptr %ref.tmp, align 8
  %cmp.not.i = icmp eq ptr %1, null
  br i1 %cmp.not.i, label %_ZN5arrow6StatusD2Ev.exit, label %delete.notnull.i.i

delete.notnull.i.i:                               ; preds = %entry
  %_M_refcount.i.i.i.i.i = getelementptr inbounds i8, ptr %1, i64 48
  %2 = load ptr, ptr %_M_refcount.i.i.i.i.i, align 8
  %cmp.not.i.i.i.i.i.i = icmp eq ptr %2, null
  br i1 %cmp.not.i.i.i.i.i.i, label %_ZN5arrow6Status11DeleteStateEv.exit.i, label %if.then.i.i.i.i.i.i

if.then.i.i.i.i.i.i:                              ; preds = %delete.notnull.i.i
  %_M_use_count.i.i.i.i.i.i.i = getelementptr inbounds i8, ptr %2, i64 8
  %3 = load atomic i64, ptr %_M_use_count.i.i.i.i.i.i.i acquire, align 8
  %cmp.i.i.i.i.i.i.i = icmp eq i64 %3, 4294967297
  %4 = trunc i64 %3 to i32
  br i1 %cmp.i.i.i.i.i.i.i, label %if.then.i.i.i.i.i.i.i, label %if.end.i.i.i.i.i.i.i

if.then.i.i.i.i.i.i.i:                            ; preds = %if.then.i.i.i.i.i.i
  store i32 0, ptr %_M_use_count.i.i.i.i.i.i.i, align 8
  %_M_weak_count.i.i.i.i.i.i.i = getelementptr inbounds i8, ptr %2, i64 12
  store i32 0, ptr %_M_weak_count.i.i.i.i.i.i.i, align 4
  %vtable.i.i.i.i.i.i.i = load ptr, ptr %2, align 8
  %vfn.i.i.i.i.i.i.i = getelementptr inbounds i8, ptr %vtable.i.i.i.i.i.i.i, i64 16
  %5 = load ptr, ptr %vfn.i.i.i.i.i.i.i, align 8
  call void %5(ptr noundef nonnull align 8 dereferenceable(16) %2) #28
  br label %if.end8.sink.split.i.i.i.i.i.i.i

if.end.i.i.i.i.i.i.i:                             ; preds = %if.then.i.i.i.i.i.i
  %6 = load i8, ptr @__libc_single_threaded, align 1
  %tobool.i.not.i.i.i.i.i.i.i = icmp eq i8 %6, 0
  br i1 %tobool.i.not.i.i.i.i.i.i.i, label %if.else.i.i.i.i.i.i.i.i, label %if.then.i.i.i.i.i.i.i.i

if.then.i.i.i.i.i.i.i.i:                          ; preds = %if.end.i.i.i.i.i.i.i
  %add.i.i.i.i.i.i.i.i = add nsw i32 %4, -1
  store i32 %add.i.i.i.i.i.i.i.i, ptr %_M_use_count.i.i.i.i.i.i.i, align 4
  br label %_ZN9__gnu_cxx27__exchange_and_add_dispatchEPii.exit.i.i.i.i.i.i.i

if.else.i.i.i.i.i.i.i.i:                          ; preds = %if.end.i.i.i.i.i.i.i
  %7 = atomicrmw volatile add ptr %_M_use_count.i.i.i.i.i.i.i, i32 -1 acq_rel, align 4
  br label %_ZN9__gnu_cxx27__exchange_and_add_dispatchEPii.exit.i.i.i.i.i.i.i

_ZN9__gnu_cxx27__exchange_and_add_dispatchEPii.exit.i.i.i.i.i.i.i: ; preds = %if.else.i.i.i.i.i.i.i.i, %if.then.i.i.i.i.i.i.i.i
  %retval.i.0.i.i.i.i.i.i.i = phi i32 [ %4, %if.then.i.i.i.i.i.i.i.i ], [ %7, %if.else.i.i.i.i.i.i.i.i ]
  %cmp6.i.i.i.i.i.i.i = icmp eq i32 %retval.i.0.i.i.i.i.i.i.i, 1
  br i1 %cmp6.i.i.i.i.i.i.i, label %if.then7.i.i.i.i.i.i.i, label %_ZN5arrow6Status11DeleteStateEv.exit.i

if.then7.i.i.i.i.i.i.i:                           ; preds = %_ZN9__gnu_cxx27__exchange_and_add_dispatchEPii.exit.i.i.i.i.i.i.i
  %vtable.i.i.i.i.i.i.i.i.i = load ptr, ptr %2, align 8
  %vfn.i.i.i.i.i.i.i.i.i = getelementptr inbounds i8, ptr %vtable.i.i.i.i.i.i.i.i.i, i64 16
  %8 = load ptr, ptr %vfn.i.i.i.i.i.i.i.i.i, align 8
  call void %8(ptr noundef nonnull align 8 dereferenceable(16) %2) #28
  %_M_weak_count.i.i.i.i.i.i.i.i.i = getelementptr inbounds i8, ptr %2, i64 12
  %9 = load i8, ptr @__libc_single_threaded, align 1
  %tobool.i.not.i.i.i.i.i.i.i.i.i = icmp eq i8 %9, 0
  br i1 %tobool.i.not.i.i.i.i.i.i.i.i.i, label %if.else.i.i.i.i.i.i.i.i.i.i, label %if.then.i.i.i.i.i.i.i.i.i.i

if.then.i.i.i.i.i.i.i.i.i.i:                      ; preds = %if.then7.i.i.i.i.i.i.i
  %10 = load i32, ptr %_M_weak_count.i.i.i.i.i.i.i.i.i, align 4
  %add.i.i.i.i.i.i.i.i.i.i = add nsw i32 %10, -1
  store i32 %add.i.i.i.i.i.i.i.i.i.i, ptr %_M_weak_count.i.i.i.i.i.i.i.i.i, align 4
  br label %_ZN9__gnu_cxx27__exchange_and_add_dispatchEPii.exit.i.i.i.i.i.i.i.i.i

if.else.i.i.i.i.i.i.i.i.i.i:                      ; preds = %if.then7.i.i.i.i.i.i.i
  %11 = atomicrmw volatile add ptr %_M_weak_count.i.i.i.i.i.i.i.i.i, i32 -1 acq_rel, align 4
  br label %_ZN9__gnu_cxx27__exchange_and_add_dispatchEPii.exit.i.i.i.i.i.i.i.i.i

_ZN9__gnu_cxx27__exchange_and_add_dispatchEPii.exit.i.i.i.i.i.i.i.i.i: ; preds = %if.else.i.i.i.i.i.i.i.i.i.i, %if.then.i.i.i.i.i.i.i.i.i.i
  %retval.i.0.i.i.i.i.i.i.i.i.i = phi i32 [ %10, %if.then.i.i.i.i.i.i.i.i.i.i ], [ %11, %if.else.i.i.i.i.i.i.i.i.i.i ]
  %cmp.i.i.i.i.i.i.i.i.i = icmp eq i32 %retval.i.0.i.i.i.i.i.i.i.i.i, 1
  br i1 %cmp.i.i.i.i.i.i.i.i.i, label %if.end8.sink.split.i.i.i.i.i.i.i, label %_ZN5arrow6Status11DeleteStateEv.exit.i

if.end8.sink.split.i.i.i.i.i.i.i:                 ; preds = %_ZN9__gnu_cxx27__exchange_and_add_dispatchEPii.exit.i.i.i.i.i.i.i.i.i, %if.then.i.i.i.i.i.i.i
  %vtable2.i.i.i.i.i.i.i.i.i = load ptr, ptr %2, align 8
  %vfn3.i.i.i.i.i.i.i.i.i = getelementptr inbounds i8, ptr %vtable2.i.i.i.i.i.i.i.i.i, i64 24
  %12 = load ptr, ptr %vfn3.i.i.i.i.i.i.i.i.i, align 8
  call void %12(ptr noundef nonnull align 8 dereferenceable(16) %2) #28
  br label %_ZN5arrow6Status11DeleteStateEv.exit.i

_ZN5arrow6Status11DeleteStateEv.exit.i:           ; preds = %if.end8.sink.split.i.i.i.i.i.i.i, %_ZN9__gnu_cxx27__exchange_and_add_dispatchEPii.exit.i.i.i.i.i.i.i.i.i, %_ZN9__gnu_cxx27__exchange_and_add_dispatchEPii.exit.i.i.i.i.i.i.i, %delete.notnull.i.i
  %msg.i.i.i = getelementptr inbounds i8, ptr %1, i64 8
  call void @_ZNSt7__cxx1112basic_stringIcSt11char_traitsIcESaIcEED1Ev(ptr noundef nonnull align 8 dereferenceable(32) %msg.i.i.i) #28
  call void @_ZdlPv(ptr noundef nonnull %1) #31
  br label %_ZN5arrow6StatusD2Ev.exit

_ZN5arrow6StatusD2Ev.exit:                        ; preds = %entry, %_ZN5arrow6Status11DeleteStateEv.exit.i
  ret void
}